; ModuleID = '61/756.c'
source_filename = "61/756.c"
target datalayout = "e-m:e-p270:32:32-p271:32:32-p272:64:64-i64:64-f80:128-n8:16:32:64-S128"
target triple = "x86_64-pc-linux-gnu"

@.str = private unnamed_addr constant [3 x i8] c"%d\00", align 1
@.str.1 = private unnamed_addr constant [2 x i8] c"\0A\00", align 1
@.str.2 = private unnamed_addr constant [4 x i8] c"%d\0A\00", align 1

; Function Attrs: noinline nounwind uwtable
define dso_local i32 @f(i32 %0) #0 {
  %2 = alloca i32, align 4
  %3 = alloca i32, align 4
  store i32 %0, i32* %2, align 4
  %4 = load i32, i32* %2, align 4
  %5 = icmp eq i32 %4, 1
  br i1 %5, label %6, label %7

6:                                                ; preds = %1
  store i32 1, i32* %3, align 4
  br label %20

7:                                                ; preds = %1
  %8 = load i32, i32* %2, align 4
  %9 = icmp eq i32 %8, 2
  br i1 %9, label %10, label %11

10:                                               ; preds = %7
  store i32 1, i32* %3, align 4
  br label %19

11:                                               ; preds = %7
  %12 = load i32, i32* %2, align 4
  %13 = sub nsw i32 %12, 1
  %14 = call i32 @f(i32 %13)
  %15 = load i32, i32* %2, align 4
  %16 = sub nsw i32 %15, 2
  %17 = call i32 @f(i32 %16)
  %18 = add nsw i32 %14, %17
  store i32 %18, i32* %3, align 4
  br label %19

19:                                               ; preds = %11, %10
  br label %20

20:                                               ; preds = %19, %6
  %21 = load i32, i32* %3, align 4
  ret i32 %21
}

; Function Attrs: noinline nounwind uwtable
define dso_local void @main() #0 {
  %1 = alloca i32, align 4
  %2 = alloca i32, align 4
  %3 = alloca [100 x i32], align 16
  %4 = call i32 (i8*, ...) @__isoc99_scanf(i8* getelementptr inbounds ([3 x i8], [3 x i8]* @.str, i64 0, i64 0), i32* %1)
  store i32 0, i32* %2, align 4
  br label %5

5:                                                ; preds = %15, %0
  %6 = load i32, i32* %2, align 4
  %7 = load i32, i32* %1, align 4
  %8 = icmp slt i32 %6, %7
  br i1 %8, label %9, label %18

9:                                                ; preds = %5
  %10 = load i32, i32* %2, align 4
  %11 = sext i32 %10 to i64
  %12 = getelementptr inbounds [100 x i32], [100 x i32]* %3, i64 0, i64 %11
  %13 = call i32 (i8*, ...) @__isoc99_scanf(i8* getelementptr inbounds ([3 x i8], [3 x i8]* @.str, i64 0, i64 0), i32* %12)
  %14 = call i32 (i8*, ...) @printf(i8* getelementptr inbounds ([2 x i8], [2 x i8]* @.str.1, i64 0, i64 0))
  br label %15

15:                                               ; preds = %9
  %16 = load i32, i32* %2, align 4
  %17 = add nsw i32 %16, 1
  store i32 %17, i32* %2, align 4
  br label %5

18:                                               ; preds = %5
  store i32 0, i32* %2, align 4
  br label %19

19:                                               ; preds = %30, %18
  %20 = load i32, i32* %2, align 4
  %21 = load i32, i32* %1, align 4
  %22 = icmp slt i32 %20, %21
  br i1 %22, label %23, label %33

23:                                               ; preds = %19
  %24 = load i32, i32* %2, align 4
  %25 = sext i32 %24 to i64
  %26 = getelementptr inbounds [100 x i32], [100 x i32]* %3, i64 0, i64 %25
  %27 = load i32, i32* %26, align 4
  %28 = call i32 @f(i32 %27)
  %29 = call i32 (i8*, ...) @printf(i8* getelementptr inbounds ([4 x i8], [4 x i8]* @.str.2, i64 0, i64 0), i32 %28)
  br label %30

30:                                               ; preds = %23
  %31 = load i32, i32* %2, align 4
  %32 = add nsw i32 %31, 1
  store i32 %32, i32* %2, align 4
  br label %19

33:                                               ; preds = %19
  ret void
}

declare dso_local i32 @__isoc99_scanf(i8*, ...) #1

declare dso_local i32 @printf(i8*, ...) #1


!llvm.module.flags = !{!0}
!llvm.ident = !{!1}

!0 = !{i32 1, !"wchar_size", i32 4}
!1 = !{!"clang version 10.0.0-4ubuntu1 "}
